target datalayout = "e-m:e-p270:32:32-p271:32:32-p272:64:64-i64:64-i128:128-f80:128-n8:16:32:64-S128"
target triple = "x86_64-pc-linux-gnu"

; Function Attrs: nounwind uwtable
define internal void @negate16(ptr noundef %0, ptr noundef %1, i64 noundef %2, i64 noundef %3, i32 noundef %4, i32 noundef %5, i32 noundef %6, i32 noundef %7, i32 noundef %8) #0 {
  %10 = alloca ptr, align 8
  %11 = alloca ptr, align 8
  %12 = alloca i64, align 8
  %13 = alloca i64, align 8
  %14 = alloca i32, align 4
  %15 = alloca i32, align 4
  %16 = alloca i32, align 4
  %17 = alloca i32, align 4
  %18 = alloca i32, align 4
  %19 = alloca ptr, align 8
  %20 = alloca ptr, align 8
  %21 = alloca i32, align 4
  %22 = alloca i32, align 4
  %23 = alloca i32, align 4
  store ptr %0, ptr %10, align 8, !tbaa !9
  store ptr %1, ptr %11, align 8, !tbaa !9
  store i64 %2, ptr %12, align 8, !tbaa !71
  store i64 %3, ptr %13, align 8, !tbaa !71
  store i32 %4, ptr %14, align 4, !tbaa !11
  store i32 %5, ptr %15, align 4, !tbaa !11
  store i32 %6, ptr %16, align 4, !tbaa !11
  store i32 %7, ptr %17, align 4, !tbaa !11
  store i32 %8, ptr %18, align 4, !tbaa !11
  call void @llvm.lifetime.start.p0(i64 8, ptr %19) #5
  %24 = load ptr, ptr %10, align 8, !tbaa !9
  store ptr %24, ptr %19, align 8, !tbaa !74
  call void @llvm.lifetime.start.p0(i64 8, ptr %20) #5
  %25 = load ptr, ptr %11, align 8, !tbaa !9
  store ptr %25, ptr %20, align 8, !tbaa !74
  %26 = load i64, ptr %13, align 8, !tbaa !71
  %27 = sdiv i64 %26, 2
  store i64 %27, ptr %13, align 8, !tbaa !71
  %28 = load i64, ptr %12, align 8, !tbaa !71
  %29 = sdiv i64 %28, 2
  store i64 %29, ptr %12, align 8, !tbaa !71
  call void @llvm.lifetime.start.p0(i64 4, ptr %21) #5
  store i32 0, ptr %21, align 4, !tbaa !11
  br label %30

30:                                               ; preds = %65, %9
  %31 = load i32, ptr %21, align 4, !tbaa !11
  %32 = load i32, ptr %15, align 4, !tbaa !11
  %33 = icmp slt i32 %31, %32
  br i1 %33, label %35, label %34

34:                                               ; preds = %30
  store i32 2, ptr %22, align 4
  call void @llvm.lifetime.end.p0(i64 4, ptr %21) #5
  br label %68

35:                                               ; preds = %30
  call void @llvm.lifetime.start.p0(i64 4, ptr %23) #5
  store i32 0, ptr %23, align 4, !tbaa !11
  br label %36

36:                                               ; preds = %55, %35
  %37 = load i32, ptr %23, align 4, !tbaa !11
  %38 = load i32, ptr %14, align 4, !tbaa !11
  %39 = icmp slt i32 %37, %38
  br i1 %39, label %41, label %40

40:                                               ; preds = %36
  store i32 5, ptr %22, align 4
  call void @llvm.lifetime.end.p0(i64 4, ptr %23) #5
  br label %58

41:                                               ; preds = %36
  %42 = load i32, ptr %16, align 4, !tbaa !11
  %43 = load ptr, ptr %19, align 8, !tbaa !74
  %44 = load i32, ptr %23, align 4, !tbaa !11
  %45 = sext i32 %44 to i64
  %46 = getelementptr inbounds i16, ptr %43, i64 %45
  %47 = load i16, ptr %46, align 2, !tbaa !76
  %48 = zext i16 %47 to i32
  %49 = sub nsw i32 %42, %48
  %50 = trunc i32 %49 to i16
  %51 = load ptr, ptr %20, align 8, !tbaa !74
  %52 = load i32, ptr %23, align 4, !tbaa !11
  %53 = sext i32 %52 to i64
  %54 = getelementptr inbounds i16, ptr %51, i64 %53
  store i16 %50, ptr %54, align 2, !tbaa !76
  br label %55

55:                                               ; preds = %41
  %56 = load i32, ptr %23, align 4, !tbaa !11
  %57 = add nsw i32 %56, 1
  store i32 %57, ptr %23, align 4, !tbaa !11
  br label %36, !llvm.loop !78

58:                                               ; preds = %40
  %59 = load i64, ptr %13, align 8, !tbaa !71
  %60 = load ptr, ptr %20, align 8, !tbaa !74
  %61 = getelementptr inbounds i16, ptr %60, i64 %59
  store ptr %61, ptr %20, align 8, !tbaa !74
  %62 = load i64, ptr %12, align 8, !tbaa !71
  %63 = load ptr, ptr %19, align 8, !tbaa !74
  %64 = getelementptr inbounds i16, ptr %63, i64 %62
  store ptr %64, ptr %19, align 8, !tbaa !74
  br label %65

65:                                               ; preds = %58
  %66 = load i32, ptr %21, align 4, !tbaa !11
  %67 = add nsw i32 %66, 1
  store i32 %67, ptr %21, align 4, !tbaa !11
  br label %30, !llvm.loop !79

68:                                               ; preds = %34
  call void @llvm.lifetime.end.p0(i64 8, ptr %20) #5
  call void @llvm.lifetime.end.p0(i64 8, ptr %19) #5
  ret void
}