; Function Attrs: nofree norecurse nosync nounwind memory(argmem: readwrite) uwtable
define internal void @negate16(ptr noundef readonly captures(none) %0, ptr noundef writeonly captures(none) %1, i64 noundef %2, i64 noundef %3, i32 noundef %4, i32 noundef %5, i32 noundef %6, i32 %7, i32 %8) #4 {
  %10 = sdiv i64 %3, 2
  %11 = sdiv i64 %2, 2
  %12 = icmp sgt i32 %5, 0
  br i1 %12, label %.preheader.lr.ph, label %._crit_edge25

.preheader.lr.ph:                                 ; preds = %9
  %13 = icmp sgt i32 %4, 0
  %14 = trunc i32 %6 to i16
  br i1 %13, label %.preheader.us.preheader, label %._crit_edge25

.preheader.us.preheader:                          ; preds = %.preheader.lr.ph
  %wide.trip.count = zext nneg i32 %4 to i64
  br label %.preheader.us

.preheader.us:                                    ; preds = %.preheader.us.preheader, %._crit_edge.us
  %.01824.us = phi i32 [ %22, %._crit_edge.us ], [ 0, %.preheader.us.preheader ]
  %.01923.us = phi ptr [ %20, %._crit_edge.us ], [ %1, %.preheader.us.preheader ]
  %.02022.us = phi ptr [ %21, %._crit_edge.us ], [ %0, %.preheader.us.preheader ]
  br label %15

15:                                               ; preds = %.preheader.us, %15
  %indvars.iv = phi i64 [ 0, %.preheader.us ], [ %indvars.iv.next, %15 ]
  %16 = getelementptr inbounds nuw i16, ptr %.02022.us, i64 %indvars.iv
  %17 = load i16, ptr %16, align 2, !tbaa !65
  %18 = sub i16 %14, %17
  %19 = getelementptr inbounds nuw i16, ptr %.01923.us, i64 %indvars.iv
  store i16 %18, ptr %19, align 2, !tbaa !65
  %indvars.iv.next = add nuw nsw i64 %indvars.iv, 1
  %exitcond.not = icmp eq i64 %indvars.iv.next, %wide.trip.count
  br i1 %exitcond.not, label %._crit_edge.us, label %15, !llvm.loop !67

._crit_edge.us:                                   ; preds = %15
  %20 = getelementptr inbounds i16, ptr %.01923.us, i64 %10
  %21 = getelementptr inbounds i16, ptr %.02022.us, i64 %11
  %22 = add nuw nsw i32 %.01824.us, 1
  %exitcond28.not = icmp eq i32 %22, %5
  br i1 %exitcond28.not, label %._crit_edge25, label %.preheader.us, !llvm.loop !68

._crit_edge25:                                    ; preds = %._crit_edge.us, %.preheader.lr.ph, %9
  ret void
}